; Function Attrs: mustprogress uwtable
define noundef zeroext i1 @_ZN6google8protobuf8internal10VerifyUTF8ESt17basic_string_viewIcSt11char_traitsIcEEPKc(i64 %str.coerce0, ptr %str.coerce1, ptr noundef %field_name) local_unnamed_addr #4 personality ptr @__gxx_personality_v0 {
entry:
  %call = tail call noundef zeroext i1 @_ZN10utf8_range19IsStructurallyValidESt17basic_string_viewIcSt11char_traitsIcEE(i64 %str.coerce0, ptr %str.coerce1)
  br i1 %call, label %return, label %if.then

if.then:                                          ; preds = %entry
  %call.i.i1 = tail call noundef i64 @strlen(ptr noundef nonnull dereferenceable(1) %field_name) #18
  tail call void @_ZN6google8protobuf8internal17PrintUTF8ErrorLogESt17basic_string_viewIcSt11char_traitsIcEES5_PKcb(i64 0, ptr nonnull @.str, i64 %call.i.i1, ptr nonnull %field_name, ptr noundef nonnull @.str.1, i1 noundef zeroext false)
  br label %return

return:                                           ; preds = %entry, %if.then
  ret i1 %call
}